; Function Attrs: mustprogress uwtable
define noundef zeroext i1 @_ZN8facebook5velox9connector19unregisterConnectorERKNSt7__cxx1112basic_stringIcSt11char_traitsIcESaIcEEE(ptr noundef nonnull align 8 dereferenceable(32) %connectorId) local_unnamed_addr #1 {
entry:
  %0 = load atomic i8, ptr @_ZGVZN8facebook5velox9connector12_GLOBAL__N_110connectorsB5cxx11EvE10connectorsB5cxx11 acquire, align 8
  %guard.uninitialized.i = icmp eq i8 %0, 0
  br i1 %guard.uninitialized.i, label %init.check.i, label %_ZN8facebook5velox9connector12_GLOBAL__N_110connectorsB5cxx11Ev.exit, !prof !7

init.check.i:                                     ; preds = %entry
  %1 = tail call i32 @__cxa_guard_acquire(ptr nonnull @_ZGVZN8facebook5velox9connector12_GLOBAL__N_110connectorsB5cxx11EvE10connectorsB5cxx11) #19
  %tobool.not.i = icmp eq i32 %1, 0
  br i1 %tobool.not.i, label %_ZN8facebook5velox9connector12_GLOBAL__N_110connectorsB5cxx11Ev.exit, label %init.i

init.i:                                           ; preds = %init.check.i
  store ptr getelementptr inbounds (%"class.std::unordered_map.15", ptr @_ZZN8facebook5velox9connector12_GLOBAL__N_110connectorsB5cxx11EvE10connectorsB5cxx11, i64 0, i32 0, i32 5), ptr @_ZZN8facebook5velox9connector12_GLOBAL__N_110connectorsB5cxx11EvE10connectorsB5cxx11, align 8
  store i64 1, ptr getelementptr inbounds (%"class.std::unordered_map.15", ptr @_ZZN8facebook5velox9connector12_GLOBAL__N_110connectorsB5cxx11EvE10connectorsB5cxx11, i64 0, i32 0, i32 1), align 8
  tail call void @llvm.memset.p0.i64(ptr noundef nonnull align 8 dereferenceable(16) getelementptr inbounds (%"class.std::unordered_map.15", ptr @_ZZN8facebook5velox9connector12_GLOBAL__N_110connectorsB5cxx11EvE10connectorsB5cxx11, i64 0, i32 0, i32 2, i32 0), i8 0, i64 16, i1 false)
  store float 1.000000e+00, ptr getelementptr inbounds (%"class.std::unordered_map.15", ptr @_ZZN8facebook5velox9connector12_GLOBAL__N_110connectorsB5cxx11EvE10connectorsB5cxx11, i64 0, i32 0, i32 4, i32 0), align 8
  tail call void @llvm.memset.p0.i64(ptr noundef nonnull align 8 dereferenceable(16) getelementptr inbounds (%"class.std::unordered_map.15", ptr @_ZZN8facebook5velox9connector12_GLOBAL__N_110connectorsB5cxx11EvE10connectorsB5cxx11, i64 0, i32 0, i32 4, i32 1), i8 0, i64 16, i1 false)
  %2 = tail call i32 @__cxa_atexit(ptr nonnull @_ZNSt13unordered_mapINSt7__cxx1112basic_stringIcSt11char_traitsIcESaIcEEESt10shared_ptrIN8facebook5velox9connector9ConnectorEESt4hashIS5_ESt8equal_toIS5_ESaISt4pairIKS5_SB_EEED2Ev, ptr nonnull @_ZZN8facebook5velox9connector12_GLOBAL__N_110connectorsB5cxx11EvE10connectorsB5cxx11, ptr nonnull @__dso_handle) #19
  tail call void @__cxa_guard_release(ptr nonnull @_ZGVZN8facebook5velox9connector12_GLOBAL__N_110connectorsB5cxx11EvE10connectorsB5cxx11) #19
  br label %_ZN8facebook5velox9connector12_GLOBAL__N_110connectorsB5cxx11Ev.exit

_ZN8facebook5velox9connector12_GLOBAL__N_110connectorsB5cxx11Ev.exit: ; preds = %entry, %init.check.i, %init.i
  %call.i.i = tail call noundef i64 @_ZNSt10_HashtableINSt7__cxx1112basic_stringIcSt11char_traitsIcESaIcEEESt4pairIKS5_St10shared_ptrIN8facebook5velox9connector9ConnectorEEESaISE_ENSt8__detail10_Select1stESt8equal_toIS5_ESt4hashIS5_ENSG_18_Mod_range_hashingENSG_20_Default_ranged_hashENSG_20_Prime_rehash_policyENSG_17_Hashtable_traitsILb1ELb0ELb1EEEE8_M_eraseESt17integral_constantIbLb1EERS7_(ptr noundef nonnull align 8 dereferenceable(56) @_ZZN8facebook5velox9connector12_GLOBAL__N_110connectorsB5cxx11EvE10connectorsB5cxx11, ptr noundef nonnull align 8 dereferenceable(32) %connectorId)
  %cmp = icmp eq i64 %call.i.i, 1
  ret i1 %cmp
}